target datalayout = "e-m:e-p270:32:32-p271:32:32-p272:64:64-i64:64-i128:128-f80:128-n8:16:32:64-S128"
target triple = "x86_64-unknown-linux-gnu"

%"class.std::function" = type { %"class.std::_Function_base", ptr }
%"class.std::_Function_base" = type { %"union.std::_Any_data", ptr }
%"union.std::_Any_data" = type { %"union.std::_Nocopy_types" }
%"union.std::_Nocopy_types" = type { { i64, i64 } }
%class.anon.7 = type { i8 }

; Function Attrs: mustprogress nounwind uwtable
define linkonce_odr noundef zeroext i1 @_ZNKSt14_Function_base8_M_emptyEv(ptr noundef nonnull align 8 dereferenceable(24) %this) #1 comdat align 2 {
entry:
  %this.addr = alloca ptr, align 8
  store ptr %this, ptr %this.addr, align 8
  %this1 = load ptr, ptr %this.addr, align 8
  %_M_manager = getelementptr inbounds %"class.std::_Function_base", ptr %this1, i32 0, i32 1
  %0 = load ptr, ptr %_M_manager, align 8
  %tobool = icmp ne ptr %0, null
  %lnot = xor i1 %tobool, true
  ret i1 %lnot
}

; Function Attrs: mustprogress uwtable
define linkonce_odr void @_ZNKSt8functionIFvPKcEEclES1_(ptr noundef nonnull align 8 dereferenceable(32) %this, ptr noundef %__args) #0 comdat align 2 {
entry:
  %this.addr = alloca ptr, align 8
  %__args.addr = alloca ptr, align 8
  store ptr %this, ptr %this.addr, align 8
  store ptr %__args, ptr %__args.addr, align 8
  %this1 = load ptr, ptr %this.addr, align 8
  %call = call noundef zeroext i1 @_ZNKSt14_Function_base8_M_emptyEv(ptr noundef nonnull align 8 dereferenceable(24) %this1)
  br i1 %call, label %if.then, label %if.end

if.then:                                          ; preds = %entry
  call void @_ZSt25__throw_bad_function_callv() #21
  unreachable

if.end:                                           ; preds = %entry
  %_M_invoker = getelementptr inbounds %"class.std::function", ptr %this1, i32 0, i32 1
  %0 = load ptr, ptr %_M_invoker, align 8
  %_M_functor = getelementptr inbounds %"class.std::_Function_base", ptr %this1, i32 0, i32 0
  call void %0(ptr noundef nonnull align 8 dereferenceable(16) %_M_functor, ptr noundef nonnull align 8 dereferenceable(8) %__args.addr)
  ret void
}

; Function Attrs: mustprogress uwtable
define internal void @"_ZZN5arrow20jemalloc_stats_printESt8functionIFvPKcEES2_ENK3$_0clEPvS2_"(ptr noundef nonnull align 1 dereferenceable(1) %this, ptr noundef %opaque, ptr noundef %str) #0 align 2 {
entry:
  %this.addr = alloca ptr, align 8
  %opaque.addr = alloca ptr, align 8
  %str.addr = alloca ptr, align 8
  store ptr %this, ptr %this.addr, align 8
  store ptr %opaque, ptr %opaque.addr, align 8
  store ptr %str, ptr %str.addr, align 8
  %0 = load ptr, ptr %opaque.addr, align 8
  %1 = load ptr, ptr %str.addr, align 8
  call void @_ZNKSt8functionIFvPKcEEclES1_(ptr noundef nonnull align 8 dereferenceable(32) %0, ptr noundef %1)
  ret void
}

; Function Attrs: mustprogress uwtable
define internal void @"_ZZN5arrow20jemalloc_stats_printESt8functionIFvPKcEES2_EN3$_08__invokeEPvS2_"(ptr noundef %opaque, ptr noundef %str) #0 align 2 {
entry:
  %opaque.addr = alloca ptr, align 8
  %str.addr = alloca ptr, align 8
  %unused.capture = alloca %class.anon.7, align 1
  store ptr %opaque, ptr %opaque.addr, align 8
  store ptr %str, ptr %str.addr, align 8
  %0 = load ptr, ptr %opaque.addr, align 8
  %1 = load ptr, ptr %str.addr, align 8
  call void @"_ZZN5arrow20jemalloc_stats_printESt8functionIFvPKcEES2_ENK3$_0clEPvS2_"(ptr noundef nonnull align 1 dereferenceable(1) %unused.capture, ptr noundef %0, ptr noundef %1)
  ret void
}