; Function Attrs: mustprogress uwtable
define internal void @"_ZZN5arrow20jemalloc_stats_printESt8functionIFvPKcEES2_EN3$_08__invokeEPvS2_"(ptr noundef %opaque, ptr noundef %str) #0 align 2 {
entry:
  %__args.addr.i.i = alloca ptr, align 8
  call void @llvm.lifetime.start.p0(i64 8, ptr nonnull %__args.addr.i.i)
  store ptr %str, ptr %__args.addr.i.i, align 8
  %_M_manager.i.i.i = getelementptr inbounds nuw i8, ptr %opaque, i64 16
  %0 = load ptr, ptr %_M_manager.i.i.i, align 8
  %tobool.not.i.i.i = icmp eq ptr %0, null
  br i1 %tobool.not.i.i.i, label %if.then.i.i, label %"_ZZN5arrow20jemalloc_stats_printESt8functionIFvPKcEES2_ENK3$_0clEPvS2_.exit"

if.then.i.i:                                      ; preds = %entry
  tail call void @_ZSt25__throw_bad_function_callv() #23
  unreachable

"_ZZN5arrow20jemalloc_stats_printESt8functionIFvPKcEES2_ENK3$_0clEPvS2_.exit": ; preds = %entry
  %_M_invoker.i.i = getelementptr inbounds nuw i8, ptr %opaque, i64 24
  %1 = load ptr, ptr %_M_invoker.i.i, align 8
  call void %1(ptr noundef nonnull align 8 dereferenceable(32) %opaque, ptr noundef nonnull align 8 dereferenceable(8) %__args.addr.i.i)
  call void @llvm.lifetime.end.p0(i64 8, ptr nonnull %__args.addr.i.i)
  ret void
}